target datalayout = "e-m:e-p270:32:32-p271:32:32-p272:64:64-i64:64-i128:128-f80:128-n8:16:32:64-S128"
target triple = "x86_64-unknown-linux-gnu"

%"struct.std::_Vector_base.17" = type { %"struct.std::_Vector_base<rocksdb::CacheWriteBuffer *, std::allocator<rocksdb::CacheWriteBuffer *>>::_Vector_impl" }
%"struct.std::_Vector_base<rocksdb::CacheWriteBuffer *, std::allocator<rocksdb::CacheWriteBuffer *>>::_Vector_impl" = type { %"struct.std::_Vector_base<rocksdb::CacheWriteBuffer *, std::allocator<rocksdb::CacheWriteBuffer *>>::_Vector_impl_data" }
%"struct.std::_Vector_base<rocksdb::CacheWriteBuffer *, std::allocator<rocksdb::CacheWriteBuffer *>>::_Vector_impl_data" = type { ptr, ptr, ptr }
%"class.rocksdb::CacheWriteBuffer" = type { ptr, %"class.std::unique_ptr.21", i64, i64 }
%"class.std::unique_ptr.21" = type { %"struct.std::__uniq_ptr_data.22" }
%"struct.std::__uniq_ptr_data.22" = type { %"class.std::__uniq_ptr_impl.23" }
%"class.std::__uniq_ptr_impl.23" = type { %"class.std::tuple.24" }
%"class.std::tuple.24" = type { %"struct.std::_Tuple_impl.25" }
%"struct.std::_Tuple_impl.25" = type { %"struct.std::_Head_base.28" }
%"struct.std::_Head_base.28" = type { ptr }

; Function Attrs: mustprogress nounwind uwtable
define linkonce_odr noundef nonnull align 8 dereferenceable(8) ptr @_ZNSt10_Head_baseILm0EPcLb0EE7_M_headERKS1_(ptr noundef nonnull align 8 dereferenceable(8) %__b) #2 comdat align 2 {
entry:
  %__b.addr = alloca ptr, align 8
  store ptr %__b, ptr %__b.addr, align 8
  %0 = load ptr, ptr %__b.addr, align 8
  %_M_head_impl = getelementptr inbounds %"struct.std::_Head_base.28", ptr %0, i32 0, i32 0
  ret ptr %_M_head_impl
}

; Function Attrs: mustprogress nounwind uwtable
define linkonce_odr noundef nonnull align 8 dereferenceable(8) ptr @_ZNSt11_Tuple_implILm0EJPcSt14default_deleteIA_cEEE7_M_headERKS4_(ptr noundef nonnull align 8 dereferenceable(8) %__t) #2 comdat align 2 {
entry:
  %__t.addr = alloca ptr, align 8
  store ptr %__t, ptr %__t.addr, align 8
  %0 = load ptr, ptr %__t.addr, align 8
  %call = call noundef nonnull align 8 dereferenceable(8) ptr @_ZNSt10_Head_baseILm0EPcLb0EE7_M_headERKS1_(ptr noundef nonnull align 8 dereferenceable(8) %0) #12
  ret ptr %call
}

; Function Attrs: mustprogress nounwind uwtable
define linkonce_odr noundef nonnull align 8 dereferenceable(8) ptr @_ZSt12__get_helperILm0EPcJSt14default_deleteIA_cEEERKT0_RKSt11_Tuple_implIXT_EJS4_DpT1_EE(ptr noundef nonnull align 8 dereferenceable(8) %__t) #2 comdat {
entry:
  %__t.addr = alloca ptr, align 8
  store ptr %__t, ptr %__t.addr, align 8
  %0 = load ptr, ptr %__t.addr, align 8
  %call = call noundef nonnull align 8 dereferenceable(8) ptr @_ZNSt11_Tuple_implILm0EJPcSt14default_deleteIA_cEEE7_M_headERKS4_(ptr noundef nonnull align 8 dereferenceable(8) %0) #12
  ret ptr %call
}

; Function Attrs: mustprogress nounwind uwtable
define linkonce_odr noundef nonnull align 8 dereferenceable(8) ptr @_ZSt3getILm0EJPcSt14default_deleteIA_cEEERKNSt13tuple_elementIXT_ESt5tupleIJDpT0_EEE4typeERKS8_(ptr noundef nonnull align 8 dereferenceable(8) %__t) #2 comdat {
entry:
  %__t.addr = alloca ptr, align 8
  store ptr %__t, ptr %__t.addr, align 8
  %0 = load ptr, ptr %__t.addr, align 8
  %call = call noundef nonnull align 8 dereferenceable(8) ptr @_ZSt12__get_helperILm0EPcJSt14default_deleteIA_cEEERKT0_RKSt11_Tuple_implIXT_EJS4_DpT1_EE(ptr noundef nonnull align 8 dereferenceable(8) %0) #12
  ret ptr %call
}

; Function Attrs: mustprogress nounwind uwtable
define linkonce_odr noundef ptr @_ZNKSt15__uniq_ptr_implIcSt14default_deleteIA_cEE6_M_ptrEv(ptr noundef nonnull align 8 dereferenceable(8) %this) #2 comdat align 2 {
entry:
  %this.addr = alloca ptr, align 8
  store ptr %this, ptr %this.addr, align 8
  %this1 = load ptr, ptr %this.addr, align 8
  %_M_t = getelementptr inbounds %"class.std::__uniq_ptr_impl.23", ptr %this1, i32 0, i32 0
  %call = call noundef nonnull align 8 dereferenceable(8) ptr @_ZSt3getILm0EJPcSt14default_deleteIA_cEEERKNSt13tuple_elementIXT_ESt5tupleIJDpT0_EEE4typeERKS8_(ptr noundef nonnull align 8 dereferenceable(8) %_M_t) #12
  %0 = load ptr, ptr %call, align 8
  ret ptr %0
}

; Function Attrs: mustprogress nounwind uwtable
define linkonce_odr noundef ptr @_ZNKSt10unique_ptrIA_cSt14default_deleteIS0_EE3getEv(ptr noundef nonnull align 8 dereferenceable(8) %this) #2 comdat align 2 {
entry:
  %this.addr = alloca ptr, align 8
  store ptr %this, ptr %this.addr, align 8
  %this1 = load ptr, ptr %this.addr, align 8
  %_M_t = getelementptr inbounds %"class.std::unique_ptr.21", ptr %this1, i32 0, i32 0
  %call = call noundef ptr @_ZNKSt15__uniq_ptr_implIcSt14default_deleteIA_cEE6_M_ptrEv(ptr noundef nonnull align 8 dereferenceable(8) %_M_t) #12
  ret ptr %call
}

; Function Attrs: mustprogress nounwind uwtable
define linkonce_odr void @_ZN7rocksdb16CacheWriteBuffer6AppendEPKcm(ptr noundef nonnull align 8 dereferenceable(32) %this, ptr noundef %buf, i64 noundef %size) #2 comdat align 2 {
entry:
  %this.addr = alloca ptr, align 8
  %buf.addr = alloca ptr, align 8
  %size.addr = alloca i64, align 8
  store ptr %this, ptr %this.addr, align 8
  store ptr %buf, ptr %buf.addr, align 8
  store i64 %size, ptr %size.addr, align 8
  %this1 = load ptr, ptr %this.addr, align 8
  %buf_ = getelementptr inbounds %"class.rocksdb::CacheWriteBuffer", ptr %this1, i32 0, i32 1
  %call = call noundef ptr @_ZNKSt10unique_ptrIA_cSt14default_deleteIS0_EE3getEv(ptr noundef nonnull align 8 dereferenceable(8) %buf_) #12
  %pos_ = getelementptr inbounds %"class.rocksdb::CacheWriteBuffer", ptr %this1, i32 0, i32 3
  %0 = load i64, ptr %pos_, align 8
  %add.ptr = getelementptr inbounds i8, ptr %call, i64 %0
  %1 = load ptr, ptr %buf.addr, align 8
  %2 = load i64, ptr %size.addr, align 8
  call void @llvm.memcpy.p0.p0.i64(ptr align 1 %add.ptr, ptr align 1 %1, i64 %2, i1 false)
  %3 = load i64, ptr %size.addr, align 8
  %pos_2 = getelementptr inbounds %"class.rocksdb::CacheWriteBuffer", ptr %this1, i32 0, i32 3
  %4 = load i64, ptr %pos_2, align 8
  %add = add i64 %4, %3
  store i64 %add, ptr %pos_2, align 8
  ret void
}

; Function Attrs: mustprogress nounwind uwtable
define linkonce_odr noundef i64 @_ZNK7rocksdb16CacheWriteBuffer4FreeEv(ptr noundef nonnull align 8 dereferenceable(32) %this) #2 comdat align 2 {
entry:
  %this.addr = alloca ptr, align 8
  store ptr %this, ptr %this.addr, align 8
  %this1 = load ptr, ptr %this.addr, align 8
  %size_ = getelementptr inbounds %"class.rocksdb::CacheWriteBuffer", ptr %this1, i32 0, i32 2
  %0 = load i64, ptr %size_, align 8
  %pos_ = getelementptr inbounds %"class.rocksdb::CacheWriteBuffer", ptr %this1, i32 0, i32 3
  %1 = load i64, ptr %pos_, align 8
  %sub = sub i64 %0, %1
  ret i64 %sub
}

; Function Attrs: mustprogress nounwind uwtable
define linkonce_odr noundef nonnull align 8 dereferenceable(8) ptr @_ZNSt6vectorIPN7rocksdb16CacheWriteBufferESaIS2_EEixEm(ptr noundef nonnull align 8 dereferenceable(24) %this, i64 noundef %__n) #2 comdat align 2 {
entry:
  %this.addr = alloca ptr, align 8
  %__n.addr = alloca i64, align 8
  store ptr %this, ptr %this.addr, align 8
  store i64 %__n, ptr %__n.addr, align 8
  %this1 = load ptr, ptr %this.addr, align 8
  %_M_impl = getelementptr inbounds %"struct.std::_Vector_base.17", ptr %this1, i32 0, i32 0
  %_M_start = getelementptr inbounds %"struct.std::_Vector_base<rocksdb::CacheWriteBuffer *, std::allocator<rocksdb::CacheWriteBuffer *>>::_Vector_impl_data", ptr %_M_impl, i32 0, i32 0
  %0 = load ptr, ptr %_M_start, align 8
  %1 = load i64, ptr %__n.addr, align 8
  %add.ptr = getelementptr inbounds ptr, ptr %0, i64 %1
  ret ptr %add.ptr
}

; Function Attrs: mustprogress nounwind uwtable
define linkonce_odr noundef i64 @_ZNKSt6vectorIPN7rocksdb16CacheWriteBufferESaIS2_EE4sizeEv(ptr noundef nonnull align 8 dereferenceable(24) %this) #2 comdat align 2 {
entry:
  %this.addr = alloca ptr, align 8
  store ptr %this, ptr %this.addr, align 8
  %this1 = load ptr, ptr %this.addr, align 8
  %_M_impl = getelementptr inbounds %"struct.std::_Vector_base.17", ptr %this1, i32 0, i32 0
  %_M_finish = getelementptr inbounds %"struct.std::_Vector_base<rocksdb::CacheWriteBuffer *, std::allocator<rocksdb::CacheWriteBuffer *>>::_Vector_impl_data", ptr %_M_impl, i32 0, i32 1
  %0 = load ptr, ptr %_M_finish, align 8
  %_M_impl2 = getelementptr inbounds %"struct.std::_Vector_base.17", ptr %this1, i32 0, i32 0
  %_M_start = getelementptr inbounds %"struct.std::_Vector_base<rocksdb::CacheWriteBuffer *, std::allocator<rocksdb::CacheWriteBuffer *>>::_Vector_impl_data", ptr %_M_impl2, i32 0, i32 0
  %1 = load ptr, ptr %_M_start, align 8
  %sub.ptr.lhs.cast = ptrtoint ptr %0 to i64
  %sub.ptr.rhs.cast = ptrtoint ptr %1 to i64
  %sub.ptr.sub = sub i64 %sub.ptr.lhs.cast, %sub.ptr.rhs.cast
  %sub.ptr.div = sdiv exact i64 %sub.ptr.sub, 8
  ret i64 %sub.ptr.div
}

; Function Attrs: mustprogress uwtable
define noundef zeroext i1 @_ZN7rocksdb11CacheRecord6AppendEPSt6vectorIPNS_16CacheWriteBufferESaIS3_EEPmPKcm(ptr noundef nonnull align 8 dereferenceable(48) %this, ptr noundef %bufs, ptr noundef %woff, ptr noundef %data, i64 noundef %data_size) #0 align 2 {
entry:
  %this.addr = alloca ptr, align 8
  %bufs.addr = alloca ptr, align 8
  %woff.addr = alloca ptr, align 8
  %data.addr = alloca ptr, align 8
  %data_size.addr = alloca i64, align 8
  %p = alloca ptr, align 8
  %size = alloca i64, align 8
  %buf = alloca ptr, align 8
  %free = alloca i64, align 8
  store ptr %this, ptr %this.addr, align 8
  store ptr %bufs, ptr %bufs.addr, align 8
  store ptr %woff, ptr %woff.addr, align 8
  store ptr %data, ptr %data.addr, align 8
  store i64 %data_size, ptr %data_size.addr, align 8
  %0 = load ptr, ptr %data.addr, align 8
  store ptr %0, ptr %p, align 8
  %1 = load i64, ptr %data_size.addr, align 8
  store i64 %1, ptr %size, align 8
  br label %while.cond

while.cond:                                       ; preds = %if.end8, %entry
  %2 = load i64, ptr %size, align 8
  %tobool = icmp ne i64 %2, 0
  br i1 %tobool, label %land.rhs, label %land.end

land.rhs:                                         ; preds = %while.cond
  %3 = load ptr, ptr %woff.addr, align 8
  %4 = load i64, ptr %3, align 8
  %5 = load ptr, ptr %bufs.addr, align 8
  %call = call noundef i64 @_ZNKSt6vectorIPN7rocksdb16CacheWriteBufferESaIS2_EE4sizeEv(ptr noundef nonnull align 8 dereferenceable(24) %5) #12
  %cmp = icmp ult i64 %4, %call
  br label %land.end

land.end:                                         ; preds = %land.rhs, %while.cond
  %6 = phi i1 [ false, %while.cond ], [ %cmp, %land.rhs ]
  br i1 %6, label %while.body, label %while.end

while.body:                                       ; preds = %land.end
  %7 = load ptr, ptr %bufs.addr, align 8
  %8 = load ptr, ptr %woff.addr, align 8
  %9 = load i64, ptr %8, align 8
  %call2 = call noundef nonnull align 8 dereferenceable(8) ptr @_ZNSt6vectorIPN7rocksdb16CacheWriteBufferESaIS2_EEixEm(ptr noundef nonnull align 8 dereferenceable(24) %7, i64 noundef %9) #12
  %10 = load ptr, ptr %call2, align 8
  store ptr %10, ptr %buf, align 8
  %11 = load ptr, ptr %buf, align 8
  %call3 = call noundef i64 @_ZNK7rocksdb16CacheWriteBuffer4FreeEv(ptr noundef nonnull align 8 dereferenceable(32) %11)
  store i64 %call3, ptr %free, align 8
  %12 = load i64, ptr %size, align 8
  %13 = load i64, ptr %free, align 8
  %cmp4 = icmp ule i64 %12, %13
  br i1 %cmp4, label %if.then, label %if.else

if.then:                                          ; preds = %while.body
  %14 = load ptr, ptr %buf, align 8
  %15 = load ptr, ptr %p, align 8
  %16 = load i64, ptr %size, align 8
  call void @_ZN7rocksdb16CacheWriteBuffer6AppendEPKcm(ptr noundef nonnull align 8 dereferenceable(32) %14, ptr noundef %15, i64 noundef %16)
  store i64 0, ptr %size, align 8
  br label %if.end

if.else:                                          ; preds = %while.body
  %17 = load ptr, ptr %buf, align 8
  %18 = load ptr, ptr %p, align 8
  %19 = load i64, ptr %free, align 8
  call void @_ZN7rocksdb16CacheWriteBuffer6AppendEPKcm(ptr noundef nonnull align 8 dereferenceable(32) %17, ptr noundef %18, i64 noundef %19)
  %20 = load i64, ptr %free, align 8
  %21 = load ptr, ptr %p, align 8
  %add.ptr = getelementptr inbounds i8, ptr %21, i64 %20
  store ptr %add.ptr, ptr %p, align 8
  %22 = load i64, ptr %free, align 8
  %23 = load i64, ptr %size, align 8
  %sub = sub i64 %23, %22
  store i64 %sub, ptr %size, align 8
  br label %if.end

if.end:                                           ; preds = %if.else, %if.then
  %24 = load ptr, ptr %buf, align 8
  %call5 = call noundef i64 @_ZNK7rocksdb16CacheWriteBuffer4FreeEv(ptr noundef nonnull align 8 dereferenceable(32) %24)
  %tobool6 = icmp ne i64 %call5, 0
  br i1 %tobool6, label %if.end8, label %if.then7

if.then7:                                         ; preds = %if.end
  %25 = load ptr, ptr %woff.addr, align 8
  %26 = load i64, ptr %25, align 8
  %add = add i64 %26, 1
  store i64 %add, ptr %25, align 8
  br label %if.end8

if.end8:                                          ; preds = %if.then7, %if.end
  br label %while.cond, !llvm.loop !4

while.end:                                        ; preds = %land.end
  %27 = load i64, ptr %size, align 8
  %tobool9 = icmp ne i64 %27, 0
  %lnot = xor i1 %tobool9, true
  ret i1 %lnot
}