; Function Attrs: mustprogress nofree norecurse nosync nounwind memory(readwrite, inaccessiblemem: none) uwtable
define noundef zeroext i1 @_ZN7rocksdb11CacheRecord6AppendEPSt6vectorIPNS_16CacheWriteBufferESaIS3_EEPmPKcm(ptr nocapture noundef nonnull readnone align 8 dereferenceable(48) %this, ptr nocapture noundef readonly %bufs, ptr nocapture noundef %woff, ptr nocapture noundef readonly %data, i64 noundef %data_size) local_unnamed_addr #5 align 2 {
entry:
  %tobool.not25 = icmp eq i64 %data_size, 0
  br i1 %tobool.not25, label %while.end, label %land.rhs.lr.ph

land.rhs.lr.ph:                                   ; preds = %entry
  %_M_finish.i = getelementptr inbounds i8, ptr %bufs, i64 8
  br label %land.rhs

land.rhs:                                         ; preds = %land.rhs.lr.ph, %if.end8
  %p.027 = phi ptr [ %data, %land.rhs.lr.ph ], [ %p.1, %if.end8 ]
  %size.026 = phi i64 [ %data_size, %land.rhs.lr.ph ], [ %size.1, %if.end8 ]
  %0 = load i64, ptr %woff, align 8
  %1 = load ptr, ptr %_M_finish.i, align 8
  %2 = load ptr, ptr %bufs, align 8
  %sub.ptr.lhs.cast.i = ptrtoint ptr %1 to i64
  %sub.ptr.rhs.cast.i = ptrtoint ptr %2 to i64
  %sub.ptr.sub.i = sub i64 %sub.ptr.lhs.cast.i, %sub.ptr.rhs.cast.i
  %sub.ptr.div.i = ashr exact i64 %sub.ptr.sub.i, 3
  %cmp = icmp ult i64 %0, %sub.ptr.div.i
  br i1 %cmp, label %while.body, label %while.end

while.body:                                       ; preds = %land.rhs
  %add.ptr.i = getelementptr inbounds ptr, ptr %2, i64 %0
  %3 = load ptr, ptr %add.ptr.i, align 8
  %size_.i = getelementptr inbounds i8, ptr %3, i64 16
  %4 = load i64, ptr %size_.i, align 8
  %pos_.i = getelementptr inbounds i8, ptr %3, i64 24
  %5 = load i64, ptr %pos_.i, align 8
  %sub.i = sub i64 %4, %5
  %cmp4.not = icmp ugt i64 %size.026, %sub.i
  %buf_.i18 = getelementptr inbounds i8, ptr %3, i64 8
  %6 = load ptr, ptr %buf_.i18, align 8
  %add.ptr.i20 = getelementptr inbounds i8, ptr %6, i64 %5
  br i1 %cmp4.not, label %if.else, label %if.then

if.then:                                          ; preds = %while.body
  tail call void @llvm.memcpy.p0.p0.i64(ptr align 1 %add.ptr.i20, ptr align 1 %p.027, i64 %size.026, i1 false)
  %7 = load i64, ptr %pos_.i, align 8
  %add.i = add i64 %7, %size.026
  br label %if.end

if.else:                                          ; preds = %while.body
  tail call void @llvm.memcpy.p0.p0.i64(ptr align 1 %add.ptr.i20, ptr align 1 %p.027, i64 %sub.i, i1 false)
  %8 = load i64, ptr %pos_.i, align 8
  %add.i21 = add i64 %8, %sub.i
  %add.ptr = getelementptr inbounds i8, ptr %p.027, i64 %sub.i
  %sub = sub i64 %size.026, %sub.i
  br label %if.end

if.end:                                           ; preds = %if.else, %if.then
  %add.i.sink = phi i64 [ %add.i21, %if.else ], [ %add.i, %if.then ]
  %size.1 = phi i64 [ %sub, %if.else ], [ 0, %if.then ]
  %p.1 = phi ptr [ %add.ptr, %if.else ], [ %p.027, %if.then ]
  store i64 %add.i.sink, ptr %pos_.i, align 8
  %9 = load i64, ptr %size_.i, align 8
  %tobool6.not = icmp eq i64 %9, %add.i.sink
  br i1 %tobool6.not, label %if.then7, label %if.end8

if.then7:                                         ; preds = %if.end
  %10 = load i64, ptr %woff, align 8
  %add = add i64 %10, 1
  store i64 %add, ptr %woff, align 8
  br label %if.end8

if.end8:                                          ; preds = %if.then7, %if.end
  %tobool.not = icmp eq i64 %size.1, 0
  br i1 %tobool.not, label %while.end, label %land.rhs, !llvm.loop !9

while.end:                                        ; preds = %land.rhs, %if.end8, %entry
  %tobool.not.lcssa = phi i1 [ true, %entry ], [ %cmp, %if.end8 ], [ %cmp, %land.rhs ]
  ret i1 %tobool.not.lcssa
}